; Function Attrs: nounwind uwtable
define i64 @wc_Time(ptr noundef %0) local_unnamed_addr #2 {
  %2 = load ptr, ptr @timeFunc, align 8, !tbaa !123
  %.not = icmp eq ptr %2, null
  br i1 %.not, label %5, label %3

3:                                                ; preds = %1
  %4 = tail call i64 %2(ptr noundef %0) #22
  br label %7

5:                                                ; preds = %1
  %6 = tail call i64 @time(ptr noundef %0) #22
  br label %7

7:                                                ; preds = %5, %3
  %.0 = phi i64 [ %4, %3 ], [ %6, %5 ]
  ret i64 %.0
}